target datalayout = "e-m:e-p270:32:32-p271:32:32-p272:64:64-i64:64-i128:128-f80:128-n8:16:32:64-S128"
target triple = "x86_64-pc-linux-gnu"

%struct.redisServer = type { i32, i64, ptr, ptr, ptr, i32, i32, i32, i32, i32, ptr, ptr, ptr, ptr, ptr, i32, i32, i32, i32, i64, i32, i32, i32, i32, ptr, i32, i32, [41 x i8], i32, i64, i32, i32, i32, ptr, ptr, i32, i32, i64, ptr, ptr, ptr, ptr, [2 x i32], i32, i32, i32, i32, i32, i32, [16 x ptr], i32, ptr, ptr, i32, [8 x %struct.connListener], i32, %struct.connListener, ptr, ptr, ptr, ptr, ptr, ptr, ptr, ptr, ptr, ptr, i32, ptr, i32, ptr, [3 x %struct.pause_event], [256 x i8], ptr, i64, i32, i32, [128 x i32], i32, i32, i64, i32, i32, i32, i32, i32, i64, i64, i64, i64, i64, i64, i64, i64, i64, i64, double, i64, i64, i64, i64, i64, i64, i64, i64, i64, i64, i64, i64, i64, i64, i64, i64, i64, i64, i64, i64, i64, double, i64, i64, i64, i64, i64, ptr, i64, i64, i64, %struct.malloc_stats, i64, i64, i64, i64, i64, i64, i64, i64, i64, i64, i64, i64, double, [4 x i64], i64, i64, i64, i64, [128 x i64], [128 x i64], i64, i64, [7 x %struct.anon], i64, i64, i64, i64, i64, i64, [4 x %struct.durationStats], i32, i32, i32, i32, i32, i32, i32, i32, i32, i32, i32, i32, i64, i32, i32, i32, i32, i64, i64, i32, i32, i32, i32, i32, ptr, [3 x %struct.clientBufferLimitsConfig], i32, i32, i32, ptr, i32, i32, i32, i32, i32, i32, ptr, ptr, i32, i32, i64, i64, i64, i64, i64, i32, i32, ptr, i32, i32, i64, i64, i64, i64, i64, i32, i32, i64, i32, i32, i32, i32, i32, i32, i32, i32, ptr, i32, i64, i64, i64, i64, i32, ptr, i32, ptr, i32, i32, i32, i64, i64, i64, i64, i32, i32, i32, i32, i32, i32, ptr, i32, i32, ptr, i32, i32, i32, [2 x i32], i32, %struct.redisOpArray, i32, ptr, i32, ptr, i32, i32, i32, i32, i32, i32, i32, [41 x i8], [41 x i8], i64, i64, i64, i64, i32, i32, ptr, i64, i64, %struct.replDataBuf, i64, i64, i32, i32, i32, i32, i32, i32, i32, i32, i32, i64, ptr, i64, ptr, ptr, ptr, i32, i32, ptr, ptr, i32, i32, i32, i64, i64, i64, i64, ptr, ptr, i32, ptr, i64, i32, i32, i32, i64, i32, i32, i32, i32, ptr, i32, i32, [41 x i8], i64, i32, ptr, i32, i32, i64, i64, i32, i32, i32, i32, i32, i64, [3 x i32], i32, i32, i32, [10 x i32], ptr, ptr, i32, i64, ptr, ptr, i32, i32, i32, i32, i64, i64, i64, i64, i64, i64, i64, i64, i64, i64, i32, i32, i64, i64, i32, i64, i64, i64, i64, i64, ptr, ptr, i32, ptr, i32, i32, i32, i32, i64, i64, ptr, ptr, i32, i32, i32, i32, i32, ptr, ptr, ptr, i32, i32, i32, i32, i32, i32, i32, i64, i32, i32, i64, i32, i32, i32, i32, i32, i32, i32, i64, ptr, ptr, i64, ptr, i32, %struct.aclInfo, i32, i64, i32, i32, i32, %struct.redisTLSContextConfig, ptr, ptr, ptr, ptr, ptr, i64, i32, ptr, i32, i32, i32, i64, i32, ptr }
%struct.connListener = type { [16 x i32], i32, ptr, i32, i32, ptr, ptr }
%struct.pause_event = type { i32, i64 }
%struct.malloc_stats = type { i64, i64, i64, i64, i64, i64, i64, i64, i64, i64, i64 }
%struct.anon = type { i64, i64, [16 x i64], i32 }
%struct.durationStats = type { i64, i64, i64 }
%struct.clientBufferLimitsConfig = type { i64, i64, i64 }
%struct.redisOpArray = type { ptr, i32, i32 }
%struct.replDataBuf = type { ptr, i64, i64, i64, i64 }
%struct.aclInfo = type { i64, i64, i64, i64 }
%struct.redisTLSContextConfig = type { ptr, ptr, ptr, ptr, ptr, ptr, ptr, ptr, ptr, ptr, ptr, ptr, i32, i32, i32, i32 }
%struct.listIter = type { ptr, i32 }
%struct.listNode = type { ptr, ptr, ptr }
%struct.sentinelConfig = type { ptr, ptr, ptr }
%struct.sentinelLoadQueueEntry = type { i32, ptr, i32, ptr }

@server = external global %struct.redisServer, align 8
@stderr = external global ptr, align 8
@.str.64 = private unnamed_addr constant [45 x i8] c"\0A*** FATAL CONFIG FILE ERROR (Redis %s) ***\0A\00", align 1
@.str.65 = private unnamed_addr constant [12 x i8] c"255.255.255\00", align 1
@.str.66 = private unnamed_addr constant [44 x i8] c"Reading the configuration file, at line %d\0A\00", align 1
@.str.67 = private unnamed_addr constant [10 x i8] c">>> '%s'\0A\00", align 1
@.str.68 = private unnamed_addr constant [4 x i8] c"%s\0A\00", align 1

; Function Attrs: nounwind uwtable
define dso_local void @freeSentinelConfig() #0 {
  %1 = load ptr, ptr getelementptr inbounds nuw (%struct.redisServer, ptr @server, i32 0, i32 429), align 8, !tbaa !79
  %2 = getelementptr inbounds nuw %struct.sentinelConfig, ptr %1, i32 0, i32 0
  %3 = load ptr, ptr %2, align 8, !tbaa !212
  call void @listRelease(ptr noundef %3)
  %4 = load ptr, ptr getelementptr inbounds nuw (%struct.redisServer, ptr @server, i32 0, i32 429), align 8, !tbaa !79
  %5 = getelementptr inbounds nuw %struct.sentinelConfig, ptr %4, i32 0, i32 1
  %6 = load ptr, ptr %5, align 8, !tbaa !210
  call void @listRelease(ptr noundef %6)
  %7 = load ptr, ptr getelementptr inbounds nuw (%struct.redisServer, ptr @server, i32 0, i32 429), align 8, !tbaa !79
  %8 = getelementptr inbounds nuw %struct.sentinelConfig, ptr %7, i32 0, i32 2
  %9 = load ptr, ptr %8, align 8, !tbaa !213
  call void @listRelease(ptr noundef %9)
  %10 = load ptr, ptr getelementptr inbounds nuw (%struct.redisServer, ptr @server, i32 0, i32 429), align 8, !tbaa !79
  call void @zfree(ptr noundef %10)
  store ptr null, ptr getelementptr inbounds nuw (%struct.redisServer, ptr @server, i32 0, i32 429), align 8, !tbaa !79
  ret void
}

; Function Attrs: nounwind uwtable
define dso_local void @loadSentinelConfigFromQueue() #0 {
  %1 = alloca ptr, align 8
  %2 = alloca %struct.listIter, align 8
  %3 = alloca ptr, align 8
  %4 = alloca i32, align 4
  %5 = alloca ptr, align 8
  %6 = alloca i32, align 4
  %7 = alloca i32, align 4
  %8 = alloca [3 x ptr], align 16
  %9 = alloca ptr, align 8
  call void @llvm.lifetime.start.p0(i64 8, ptr %1) #16
  store ptr null, ptr %1, align 8, !tbaa !93
  call void @llvm.lifetime.start.p0(i64 16, ptr %2) #16
  call void @llvm.lifetime.start.p0(i64 8, ptr %3) #16
  call void @llvm.lifetime.start.p0(i64 4, ptr %4) #16
  store i32 0, ptr %4, align 4, !tbaa !82
  call void @llvm.lifetime.start.p0(i64 8, ptr %5) #16
  store ptr null, ptr %5, align 8, !tbaa !93
  call void @llvm.lifetime.start.p0(i64 4, ptr %6) #16
  %10 = load ptr, ptr getelementptr inbounds nuw (%struct.redisServer, ptr @server, i32 0, i32 429), align 8, !tbaa !79
  %11 = icmp eq ptr %10, null
  br i1 %11, label %12, label %13

12:                                               ; preds = %0
  store i32 1, ptr %7, align 4
  br label %79

13:                                               ; preds = %0
  call void @llvm.lifetime.start.p0(i64 24, ptr %8) #16
  %14 = load ptr, ptr getelementptr inbounds nuw (%struct.redisServer, ptr @server, i32 0, i32 429), align 8, !tbaa !79
  %15 = getelementptr inbounds nuw %struct.sentinelConfig, ptr %14, i32 0, i32 0
  %16 = load ptr, ptr %15, align 8, !tbaa !212
  store ptr %16, ptr %8, align 8, !tbaa !224
  %17 = getelementptr inbounds ptr, ptr %8, i64 1
  %18 = load ptr, ptr getelementptr inbounds nuw (%struct.redisServer, ptr @server, i32 0, i32 429), align 8, !tbaa !79
  %19 = getelementptr inbounds nuw %struct.sentinelConfig, ptr %18, i32 0, i32 1
  %20 = load ptr, ptr %19, align 8, !tbaa !210
  store ptr %20, ptr %17, align 8, !tbaa !224
  %21 = getelementptr inbounds ptr, ptr %8, i64 2
  %22 = load ptr, ptr getelementptr inbounds nuw (%struct.redisServer, ptr @server, i32 0, i32 429), align 8, !tbaa !79
  %23 = getelementptr inbounds nuw %struct.sentinelConfig, ptr %22, i32 0, i32 2
  %24 = load ptr, ptr %23, align 8, !tbaa !213
  store ptr %24, ptr %21, align 8, !tbaa !224
  store i32 0, ptr %6, align 4, !tbaa !82
  br label %25

25:                                               ; preds = %62, %13
  %26 = load i32, ptr %6, align 4, !tbaa !82
  %27 = zext i32 %26 to i64
  %28 = icmp ult i64 %27, 3
  br i1 %28, label %29, label %65

29:                                               ; preds = %25
  %30 = load i32, ptr %6, align 4, !tbaa !82
  %31 = zext i32 %30 to i64
  %32 = getelementptr inbounds nuw [3 x ptr], ptr %8, i64 0, i64 %31
  %33 = load ptr, ptr %32, align 8, !tbaa !224
  call void @listRewind(ptr noundef %33, ptr noundef %2)
  br label %34

34:                                               ; preds = %60, %29
  %35 = call ptr @listNext(ptr noundef %2)
  store ptr %35, ptr %3, align 8, !tbaa !113
  %36 = icmp ne ptr %35, null
  br i1 %36, label %37, label %61

37:                                               ; preds = %34
  call void @llvm.lifetime.start.p0(i64 8, ptr %9) #16
  %38 = load ptr, ptr %3, align 8, !tbaa !113
  %39 = getelementptr inbounds nuw %struct.listNode, ptr %38, i32 0, i32 2
  %40 = load ptr, ptr %39, align 8, !tbaa !114
  store ptr %40, ptr %9, align 8, !tbaa !215
  %41 = load ptr, ptr %9, align 8, !tbaa !215
  %42 = getelementptr inbounds nuw %struct.sentinelLoadQueueEntry, ptr %41, i32 0, i32 1
  %43 = load ptr, ptr %42, align 8, !tbaa !217
  %44 = load ptr, ptr %9, align 8, !tbaa !215
  %45 = getelementptr inbounds nuw %struct.sentinelLoadQueueEntry, ptr %44, i32 0, i32 0
  %46 = load i32, ptr %45, align 8, !tbaa !219
  %47 = call ptr @sentinelHandleConfiguration(ptr noundef %43, i32 noundef %46)
  store ptr %47, ptr %1, align 8, !tbaa !93
  %48 = load ptr, ptr %1, align 8, !tbaa !93
  %49 = icmp ne ptr %48, null
  br i1 %49, label %50, label %57

50:                                               ; preds = %37
  %51 = load ptr, ptr %9, align 8, !tbaa !215
  %52 = getelementptr inbounds nuw %struct.sentinelLoadQueueEntry, ptr %51, i32 0, i32 2
  %53 = load i32, ptr %52, align 8, !tbaa !222
  store i32 %53, ptr %4, align 4, !tbaa !82
  %54 = load ptr, ptr %9, align 8, !tbaa !215
  %55 = getelementptr inbounds nuw %struct.sentinelLoadQueueEntry, ptr %54, i32 0, i32 3
  %56 = load ptr, ptr %55, align 8, !tbaa !220
  store ptr %56, ptr %5, align 8, !tbaa !93
  store i32 7, ptr %7, align 4
  br label %58

57:                                               ; preds = %37
  store i32 0, ptr %7, align 4
  br label %58

58:                                               ; preds = %50, %57
  call void @llvm.lifetime.end.p0(i64 8, ptr %9) #16
  %59 = load i32, ptr %7, align 4
  switch i32 %59, label %78 [
    i32 0, label %60
    i32 7, label %66
  ]

60:                                               ; preds = %58
  br label %34, !llvm.loop !225

61:                                               ; preds = %34
  br label %62

62:                                               ; preds = %61
  %63 = load i32, ptr %6, align 4, !tbaa !82
  %64 = add i32 %63, 1
  store i32 %64, ptr %6, align 4, !tbaa !82
  br label %25, !llvm.loop !226

65:                                               ; preds = %25
  call void @freeSentinelConfig()
  store i32 1, ptr %7, align 4
  br label %78

66:                                               ; preds = %58
  %67 = load ptr, ptr @stderr, align 8, !tbaa !227
  %68 = call i32 (ptr, ptr, ...) @fprintf(ptr noundef %67, ptr noundef @.str.64, ptr noundef @.str.65) #16
  %69 = load ptr, ptr @stderr, align 8, !tbaa !227
  %70 = load i32, ptr %4, align 4, !tbaa !82
  %71 = call i32 (ptr, ptr, ...) @fprintf(ptr noundef %69, ptr noundef @.str.66, i32 noundef %70) #16
  %72 = load ptr, ptr @stderr, align 8, !tbaa !227
  %73 = load ptr, ptr %5, align 8, !tbaa !93
  %74 = call i32 (ptr, ptr, ...) @fprintf(ptr noundef %72, ptr noundef @.str.67, ptr noundef %73) #16
  %75 = load ptr, ptr @stderr, align 8, !tbaa !227
  %76 = load ptr, ptr %1, align 8, !tbaa !93
  %77 = call i32 (ptr, ptr, ...) @fprintf(ptr noundef %75, ptr noundef @.str.68, ptr noundef %76) #16
  call void @exit(i32 noundef 1) #15
  unreachable

78:                                               ; preds = %65, %58
  call void @llvm.lifetime.end.p0(i64 24, ptr %8) #16
  br label %79

79:                                               ; preds = %78, %12
  call void @llvm.lifetime.end.p0(i64 4, ptr %6) #16
  call void @llvm.lifetime.end.p0(i64 8, ptr %5) #16
  call void @llvm.lifetime.end.p0(i64 4, ptr %4) #16
  call void @llvm.lifetime.end.p0(i64 8, ptr %3) #16
  call void @llvm.lifetime.end.p0(i64 16, ptr %2) #16
  call void @llvm.lifetime.end.p0(i64 8, ptr %1) #16
  ret void
}