; Function Attrs: nounwind uwtable
define dso_local void @loadSentinelConfigFromQueue() local_unnamed_addr #0 {
  %1 = alloca %struct.listIter, align 8
  %2 = alloca [3 x ptr], align 16
  call void @llvm.lifetime.start.p0(i64 16, ptr nonnull %1) #30
  %3 = load ptr, ptr getelementptr inbounds nuw (i8, ptr @server, i64 8320), align 8, !tbaa !75
  %4 = icmp eq ptr %3, null
  br i1 %4, label %49, label %5

5:                                                ; preds = %0
  call void @llvm.lifetime.start.p0(i64 24, ptr nonnull %2) #30
  %6 = load ptr, ptr %3, align 8, !tbaa !182
  store ptr %6, ptr %2, align 16, !tbaa !192
  %7 = getelementptr inbounds nuw i8, ptr %2, i64 8
  %8 = getelementptr inbounds nuw i8, ptr %3, i64 8
  %9 = load ptr, ptr %8, align 8, !tbaa !180
  store ptr %9, ptr %7, align 8, !tbaa !192
  %10 = getelementptr inbounds nuw i8, ptr %2, i64 16
  %11 = getelementptr inbounds nuw i8, ptr %3, i64 16
  %12 = load ptr, ptr %11, align 8, !tbaa !183
  store ptr %12, ptr %10, align 16, !tbaa !192
  br label %13

13:                                               ; preds = %5, %25
  %indvars.iv = phi i64 [ 0, %5 ], [ %indvars.iv.next, %25 ]
  %14 = getelementptr inbounds nuw [3 x ptr], ptr %2, i64 0, i64 %indvars.iv
  %15 = load ptr, ptr %14, align 8, !tbaa !192
  call void @listRewind(ptr noundef %15, ptr noundef nonnull %1) #30
  br label %16

16:                                               ; preds = %18, %13
  %17 = call ptr @listNext(ptr noundef nonnull %1) #30
  %.not = icmp eq ptr %17, null
  br i1 %.not, label %25, label %18

18:                                               ; preds = %16
  %19 = getelementptr inbounds nuw i8, ptr %17, i64 16
  %20 = load ptr, ptr %19, align 8, !tbaa !99
  %21 = getelementptr inbounds nuw i8, ptr %20, i64 8
  %22 = load ptr, ptr %21, align 8, !tbaa !185
  %23 = load i32, ptr %20, align 8, !tbaa !187
  %24 = call ptr @sentinelHandleConfiguration(ptr noundef %22, i32 noundef %23)
  %.not19 = icmp eq ptr %24, null
  br i1 %.not19, label %16, label %26

25:                                               ; preds = %16
  %indvars.iv.next = add nuw nsw i64 %indvars.iv, 1
  %exitcond.not = icmp eq i64 %indvars.iv.next, 3
  br i1 %exitcond.not, label %39, label %13, !llvm.loop !193

26:                                               ; preds = %18
  %27 = getelementptr inbounds nuw i8, ptr %20, i64 16
  %28 = load i32, ptr %27, align 8, !tbaa !190
  %29 = getelementptr inbounds nuw i8, ptr %20, i64 24
  %30 = load ptr, ptr %29, align 8, !tbaa !188
  %31 = load ptr, ptr @stderr, align 8, !tbaa !194
  %32 = call i32 (ptr, ptr, ...) @fprintf(ptr noundef %31, ptr noundef nonnull @.str.64, ptr noundef nonnull @.str.65) #36
  %33 = load ptr, ptr @stderr, align 8, !tbaa !194
  %34 = call i32 (ptr, ptr, ...) @fprintf(ptr noundef %33, ptr noundef nonnull @.str.66, i32 noundef %28) #36
  %35 = load ptr, ptr @stderr, align 8, !tbaa !194
  %36 = call i32 (ptr, ptr, ...) @fprintf(ptr noundef %35, ptr noundef nonnull @.str.67, ptr noundef %30) #36
  %37 = load ptr, ptr @stderr, align 8, !tbaa !194
  %38 = call i32 (ptr, ptr, ...) @fprintf(ptr noundef %37, ptr noundef nonnull @.str.68, ptr noundef nonnull %24) #36
  call void @exit(i32 noundef 1) #31
  unreachable

39:                                               ; preds = %25
  %40 = load ptr, ptr getelementptr inbounds nuw (i8, ptr @server, i64 8320), align 8, !tbaa !75
  %41 = load ptr, ptr %40, align 8, !tbaa !182
  call void @listRelease(ptr noundef %41) #30
  %42 = load ptr, ptr getelementptr inbounds nuw (i8, ptr @server, i64 8320), align 8, !tbaa !75
  %43 = getelementptr inbounds nuw i8, ptr %42, i64 8
  %44 = load ptr, ptr %43, align 8, !tbaa !180
  call void @listRelease(ptr noundef %44) #30
  %45 = load ptr, ptr getelementptr inbounds nuw (i8, ptr @server, i64 8320), align 8, !tbaa !75
  %46 = getelementptr inbounds nuw i8, ptr %45, i64 16
  %47 = load ptr, ptr %46, align 8, !tbaa !183
  call void @listRelease(ptr noundef %47) #30
  %48 = load ptr, ptr getelementptr inbounds nuw (i8, ptr @server, i64 8320), align 8, !tbaa !75
  call void @zfree(ptr noundef %48) #30
  store ptr null, ptr getelementptr inbounds nuw (i8, ptr @server, i64 8320), align 8, !tbaa !75
  call void @llvm.lifetime.end.p0(i64 24, ptr nonnull %2) #30
  br label %49

49:                                               ; preds = %0, %39
  call void @llvm.lifetime.end.p0(i64 16, ptr nonnull %1) #30
  ret void
}